; Function Attrs: mustprogress nounwind uwtable
define internal fastcc noundef ptr @_ZN5clang15StmtVisitorBaseIN4llvm14make_const_ptrEN12_GLOBAL__N_113DeclRefFinderEPKNS_11DeclRefExprEJEE17VisitOverloadExprEPKNS_12OverloadExprE(ptr noundef nonnull align 1 dereferenceable(1) %0, ptr noundef nonnull %1) unnamed_addr #0 align 2 {
  %3 = tail call noundef ptr @_ZN5clang4Expr16IgnoreParenCastsEv(ptr noundef nonnull align 8 dereferenceable(16) %1) #21
  %.not.i = icmp eq ptr %1, %3
  br i1 %.not.i, label %_ZN12_GLOBAL__N_113DeclRefFinder9VisitExprEPKN5clang4ExprE.exit, label %4

4:                                                ; preds = %2
  %5 = tail call fastcc noundef ptr @_ZN5clang15StmtVisitorBaseIN4llvm14make_const_ptrEN12_GLOBAL__N_113DeclRefFinderEPKNS_11DeclRefExprEJEE5VisitEPKNS_4StmtE(ptr noundef nonnull align 1 dereferenceable(1) %0, ptr noundef %3)
  br label %_ZN12_GLOBAL__N_113DeclRefFinder9VisitExprEPKN5clang4ExprE.exit

_ZN12_GLOBAL__N_113DeclRefFinder9VisitExprEPKN5clang4ExprE.exit: ; preds = %2, %4
  %6 = phi ptr [ %5, %4 ], [ null, %2 ]
  ret ptr %6
}